target datalayout = "e-m:e-p270:32:32-p271:32:32-p272:64:64-i64:64-i128:128-f80:128-n8:16:32:64-S128"
target triple = "x86_64-pc-linux-gnu"

%struct.write_filter_data = type { ptr, i8 }

@.str.4 = private unnamed_addr constant [13 x i8] c"colorfilters\00", align 1
@.str.10 = private unnamed_addr constant [49 x i8] c"Can't create directory\0A\22%s\22\0Afor color files: %s.\00", align 1
@.str.11 = private unnamed_addr constant [3 x i8] c"w+\00", align 1
@.str.12 = private unnamed_addr constant [35 x i8] c"Could not open\0A%s\0Afor writing: %s.\00", align 1
@.str.18 = private unnamed_addr constant [48 x i8] c"# This file was created by %s. Edit with care.\0A\00", align 1

; Function Attrs: null_pointer_is_valid sspstrong uwtable
define internal zeroext i1 @write_filters_file(ptr noundef %0, ptr noundef %1, i1 noundef zeroext %2) #0 {
  %4 = alloca ptr, align 8
  %5 = alloca ptr, align 8
  %6 = alloca i8, align 1
  %7 = alloca %struct.write_filter_data, align 8
  store ptr %0, ptr %4, align 8
  store ptr %1, ptr %5, align 8
  %8 = zext i1 %2 to i8
  store i8 %8, ptr %6, align 1
  call void @llvm.lifetime.start.p0(i64 16, ptr %7) #13
  %9 = load ptr, ptr %5, align 8
  %10 = getelementptr inbounds nuw %struct.write_filter_data, ptr %7, i32 0, i32 0
  store ptr %9, ptr %10, align 8
  %11 = load i8, ptr %6, align 1, !range !6, !noundef !7
  %12 = trunc i8 %11 to i1
  %13 = getelementptr inbounds nuw %struct.write_filter_data, ptr %7, i32 0, i32 1
  %14 = zext i1 %12 to i8
  store i8 %14, ptr %13, align 8
  %15 = load ptr, ptr %5, align 8
  %16 = call ptr @application_flavor_name_proper()
  %17 = call i32 (ptr, i32, ptr, ...) @__fprintf_chk(ptr noundef %15, i32 noundef 2, ptr noundef @.str.18, ptr noundef %16)
  %18 = load ptr, ptr %4, align 8
  call void @g_slist_foreach(ptr noundef %18, ptr noundef @write_filter, ptr noundef %7)
  call void @llvm.lifetime.end.p0(i64 16, ptr %7) #13
  ret i1 true
}

; Function Attrs: null_pointer_is_valid sspstrong uwtable
define zeroext i1 @color_filters_write(ptr noundef %0, ptr noundef %1) #0 {
  %3 = alloca i1, align 1
  %4 = alloca ptr, align 8
  %5 = alloca ptr, align 8
  %6 = alloca ptr, align 8
  %7 = alloca ptr, align 8
  %8 = alloca ptr, align 8
  %9 = alloca i32, align 4
  store ptr %0, ptr %4, align 8
  store ptr %1, ptr %5, align 8
  call void @llvm.lifetime.start.p0(i64 8, ptr %6) #13
  call void @llvm.lifetime.start.p0(i64 8, ptr %7) #13
  call void @llvm.lifetime.start.p0(i64 8, ptr %8) #13
  %10 = call i32 @create_persconffile_dir(ptr noundef %6)
  %11 = icmp eq i32 %10, -1
  br i1 %11, label %12, label %20

12:                                               ; preds = %2
  %13 = load ptr, ptr %6, align 8
  %14 = call ptr @__errno_location() #17
  %15 = load i32, ptr %14, align 4
  %16 = call ptr @g_strerror(i32 noundef %15) #17
  %17 = call noalias ptr (ptr, ptr, ...) @wmem_strdup_printf(ptr noundef null, ptr noundef @.str.10, ptr noundef %13, ptr noundef %16)
  %18 = load ptr, ptr %5, align 8
  store ptr %17, ptr %18, align 8
  %19 = load ptr, ptr %6, align 8
  call void @g_free(ptr noundef %19)
  store i1 false, ptr %3, align 1
  store i32 1, ptr %9, align 4
  br label %40

20:                                               ; preds = %2
  %21 = call ptr @get_persconffile_path(ptr noundef @.str.4, i1 noundef zeroext true)
  store ptr %21, ptr %7, align 8
  %22 = load ptr, ptr %7, align 8
  %23 = call noalias ptr @fopen(ptr noundef %22, ptr noundef @.str.11)
  store ptr %23, ptr %8, align 8
  %24 = icmp eq ptr %23, null
  br i1 %24, label %25, label %33

25:                                               ; preds = %20
  %26 = load ptr, ptr %7, align 8
  %27 = call ptr @__errno_location() #17
  %28 = load i32, ptr %27, align 4
  %29 = call ptr @g_strerror(i32 noundef %28) #17
  %30 = call noalias ptr (ptr, ptr, ...) @wmem_strdup_printf(ptr noundef null, ptr noundef @.str.12, ptr noundef %26, ptr noundef %29)
  %31 = load ptr, ptr %5, align 8
  store ptr %30, ptr %31, align 8
  %32 = load ptr, ptr %7, align 8
  call void @g_free(ptr noundef %32)
  store i1 false, ptr %3, align 1
  store i32 1, ptr %9, align 4
  br label %40

33:                                               ; preds = %20
  %34 = load ptr, ptr %7, align 8
  call void @g_free(ptr noundef %34)
  %35 = load ptr, ptr %4, align 8
  %36 = load ptr, ptr %8, align 8
  %37 = call zeroext i1 @write_filters_file(ptr noundef %35, ptr noundef %36, i1 noundef zeroext false)
  %38 = load ptr, ptr %8, align 8
  %39 = call i32 @fclose(ptr noundef %38)
  store i1 true, ptr %3, align 1
  store i32 1, ptr %9, align 4
  br label %40

40:                                               ; preds = %33, %25, %12
  call void @llvm.lifetime.end.p0(i64 8, ptr %8) #13
  call void @llvm.lifetime.end.p0(i64 8, ptr %7) #13
  call void @llvm.lifetime.end.p0(i64 8, ptr %6) #13
  %41 = load i1, ptr %3, align 1
  ret i1 %41
}