; Function Attrs: null_pointer_is_valid sspstrong uwtable
define noundef zeroext i1 @color_filters_write(ptr noundef %0, ptr noundef writeonly captures(none) %1) local_unnamed_addr #0 {
  %3 = alloca %struct.write_filter_data, align 8
  %4 = alloca ptr, align 8
  call void @llvm.lifetime.start.p0(i64 8, ptr nonnull %4) #14
  %5 = call i32 @create_persconffile_dir(ptr noundef nonnull %4)
  %6 = icmp eq i32 %5, -1
  br i1 %6, label %7, label %14

7:                                                ; preds = %2
  %8 = load ptr, ptr %4, align 8
  %9 = tail call ptr @__errno_location() #15
  %10 = load i32, ptr %9, align 4
  %11 = call ptr @g_strerror(i32 noundef %10) #15
  %12 = call noalias ptr (ptr, ptr, ...) @wmem_strdup_printf(ptr noundef null, ptr noundef nonnull @.str.10, ptr noundef %8, ptr noundef %11)
  store ptr %12, ptr %1, align 8
  %13 = load ptr, ptr %4, align 8
  call void @g_free(ptr noundef %13)
  br label %28

14:                                               ; preds = %2
  %15 = call ptr @get_persconffile_path(ptr noundef nonnull @.str.4, i1 noundef zeroext true)
  %16 = call noalias ptr @fopen(ptr noundef %15, ptr noundef nonnull @.str.11)
  %17 = icmp eq ptr %16, null
  br i1 %17, label %18, label %23

18:                                               ; preds = %14
  %19 = tail call ptr @__errno_location() #15
  %20 = load i32, ptr %19, align 4
  %21 = call ptr @g_strerror(i32 noundef %20) #15
  %22 = call noalias ptr (ptr, ptr, ...) @wmem_strdup_printf(ptr noundef null, ptr noundef nonnull @.str.12, ptr noundef %15, ptr noundef %21)
  store ptr %22, ptr %1, align 8
  call void @g_free(ptr noundef %15)
  br label %28

23:                                               ; preds = %14
  call void @g_free(ptr noundef %15)
  call void @llvm.lifetime.start.p0(i64 16, ptr nonnull %3) #14
  store ptr %16, ptr %3, align 8
  %24 = getelementptr inbounds nuw i8, ptr %3, i64 8
  store i8 0, ptr %24, align 8
  %25 = call ptr @application_flavor_name_proper()
  %26 = call i32 (ptr, i32, ptr, ...) @__fprintf_chk(ptr noundef nonnull %16, i32 noundef 2, ptr noundef nonnull @.str.18, ptr noundef %25)
  call void @g_slist_foreach(ptr noundef %0, ptr noundef nonnull @write_filter, ptr noundef nonnull %3)
  call void @llvm.lifetime.end.p0(i64 16, ptr nonnull %3) #14
  %27 = call i32 @fclose(ptr noundef nonnull %16)
  br label %28

28:                                               ; preds = %23, %18, %7
  %.0 = phi i1 [ false, %7 ], [ false, %18 ], [ true, %23 ]
  call void @llvm.lifetime.end.p0(i64 8, ptr nonnull %4) #14
  ret i1 %.0
}